target datalayout = "e-m:e-p270:32:32-p271:32:32-p272:64:64-i64:64-i128:128-f80:128-n8:16:32:64-S128"
target triple = "x86_64-pc-linux-gnu"

%struct.prov_siv_ctx_st = type { i32, i8, i64, i64, %struct.siv128_context, ptr, ptr, ptr, ptr }
%struct.siv128_context = type { %union.siv_block_u, %union.siv_block_u, ptr, ptr, ptr, i32, i32 }
%union.siv_block_u = type { [2 x i64] }

@.str = private unnamed_addr constant [12 x i8] c"AES-128-CBC\00", align 1
@.str.1 = private unnamed_addr constant [12 x i8] c"AES-128-CTR\00", align 1
@.str.2 = private unnamed_addr constant [12 x i8] c"AES-192-CBC\00", align 1
@.str.3 = private unnamed_addr constant [12 x i8] c"AES-192-CTR\00", align 1
@.str.4 = private unnamed_addr constant [12 x i8] c"AES-256-CBC\00", align 1
@.str.5 = private unnamed_addr constant [12 x i8] c"AES-256-CTR\00", align 1

; Function Attrs: nounwind uwtable
define internal i32 @aes_siv_initkey(ptr noundef %0, ptr noundef %1, i64 noundef %2) #0 {
  %4 = alloca i32, align 4
  %5 = alloca ptr, align 8
  %6 = alloca ptr, align 8
  %7 = alloca i64, align 8
  %8 = alloca ptr, align 8
  %9 = alloca ptr, align 8
  %10 = alloca i64, align 8
  %11 = alloca ptr, align 8
  %12 = alloca ptr, align 8
  %13 = alloca i32, align 4
  store ptr %0, ptr %5, align 8, !tbaa !7
  store ptr %1, ptr %6, align 8, !tbaa !9
  store i64 %2, ptr %7, align 8, !tbaa !3
  call void @llvm.lifetime.start.p0(i64 8, ptr %8) #4
  %14 = load ptr, ptr %5, align 8, !tbaa !7
  store ptr %14, ptr %8, align 8, !tbaa !11
  call void @llvm.lifetime.start.p0(i64 8, ptr %9) #4
  %15 = load ptr, ptr %8, align 8, !tbaa !11
  %16 = getelementptr inbounds nuw %struct.prov_siv_ctx_st, ptr %15, i32 0, i32 4
  store ptr %16, ptr %9, align 8, !tbaa !13
  call void @llvm.lifetime.start.p0(i64 8, ptr %10) #4
  %17 = load i64, ptr %7, align 8, !tbaa !3
  %18 = udiv i64 %17, 2
  store i64 %18, ptr %10, align 8, !tbaa !3
  call void @llvm.lifetime.start.p0(i64 8, ptr %11) #4
  %19 = load ptr, ptr %8, align 8, !tbaa !11
  %20 = getelementptr inbounds nuw %struct.prov_siv_ctx_st, ptr %19, i32 0, i32 8
  %21 = load ptr, ptr %20, align 8, !tbaa !15
  store ptr %21, ptr %11, align 8, !tbaa !25
  call void @llvm.lifetime.start.p0(i64 8, ptr %12) #4
  store ptr null, ptr %12, align 8, !tbaa !9
  %22 = load ptr, ptr %8, align 8, !tbaa !11
  %23 = getelementptr inbounds nuw %struct.prov_siv_ctx_st, ptr %22, i32 0, i32 6
  %24 = load ptr, ptr %23, align 8, !tbaa !26
  call void @EVP_CIPHER_free(ptr noundef %24)
  %25 = load ptr, ptr %8, align 8, !tbaa !11
  %26 = getelementptr inbounds nuw %struct.prov_siv_ctx_st, ptr %25, i32 0, i32 5
  %27 = load ptr, ptr %26, align 8, !tbaa !27
  call void @EVP_CIPHER_free(ptr noundef %27)
  %28 = load ptr, ptr %8, align 8, !tbaa !11
  %29 = getelementptr inbounds nuw %struct.prov_siv_ctx_st, ptr %28, i32 0, i32 6
  store ptr null, ptr %29, align 8, !tbaa !26
  %30 = load ptr, ptr %8, align 8, !tbaa !11
  %31 = getelementptr inbounds nuw %struct.prov_siv_ctx_st, ptr %30, i32 0, i32 5
  store ptr null, ptr %31, align 8, !tbaa !27
  %32 = load i64, ptr %10, align 8, !tbaa !3
  switch i64 %32, label %66 [
    i64 16, label %33
    i64 24, label %44
    i64 32, label %55
  ]

33:                                               ; preds = %3
  %34 = load ptr, ptr %11, align 8, !tbaa !25
  %35 = load ptr, ptr %12, align 8, !tbaa !9
  %36 = call ptr @EVP_CIPHER_fetch(ptr noundef %34, ptr noundef @.str, ptr noundef %35)
  %37 = load ptr, ptr %8, align 8, !tbaa !11
  %38 = getelementptr inbounds nuw %struct.prov_siv_ctx_st, ptr %37, i32 0, i32 6
  store ptr %36, ptr %38, align 8, !tbaa !26
  %39 = load ptr, ptr %11, align 8, !tbaa !25
  %40 = load ptr, ptr %12, align 8, !tbaa !9
  %41 = call ptr @EVP_CIPHER_fetch(ptr noundef %39, ptr noundef @.str.1, ptr noundef %40)
  %42 = load ptr, ptr %8, align 8, !tbaa !11
  %43 = getelementptr inbounds nuw %struct.prov_siv_ctx_st, ptr %42, i32 0, i32 5
  store ptr %41, ptr %43, align 8, !tbaa !27
  br label %67

44:                                               ; preds = %3
  %45 = load ptr, ptr %11, align 8, !tbaa !25
  %46 = load ptr, ptr %12, align 8, !tbaa !9
  %47 = call ptr @EVP_CIPHER_fetch(ptr noundef %45, ptr noundef @.str.2, ptr noundef %46)
  %48 = load ptr, ptr %8, align 8, !tbaa !11
  %49 = getelementptr inbounds nuw %struct.prov_siv_ctx_st, ptr %48, i32 0, i32 6
  store ptr %47, ptr %49, align 8, !tbaa !26
  %50 = load ptr, ptr %11, align 8, !tbaa !25
  %51 = load ptr, ptr %12, align 8, !tbaa !9
  %52 = call ptr @EVP_CIPHER_fetch(ptr noundef %50, ptr noundef @.str.3, ptr noundef %51)
  %53 = load ptr, ptr %8, align 8, !tbaa !11
  %54 = getelementptr inbounds nuw %struct.prov_siv_ctx_st, ptr %53, i32 0, i32 5
  store ptr %52, ptr %54, align 8, !tbaa !27
  br label %67

55:                                               ; preds = %3
  %56 = load ptr, ptr %11, align 8, !tbaa !25
  %57 = load ptr, ptr %12, align 8, !tbaa !9
  %58 = call ptr @EVP_CIPHER_fetch(ptr noundef %56, ptr noundef @.str.4, ptr noundef %57)
  %59 = load ptr, ptr %8, align 8, !tbaa !11
  %60 = getelementptr inbounds nuw %struct.prov_siv_ctx_st, ptr %59, i32 0, i32 6
  store ptr %58, ptr %60, align 8, !tbaa !26
  %61 = load ptr, ptr %11, align 8, !tbaa !25
  %62 = load ptr, ptr %12, align 8, !tbaa !9
  %63 = call ptr @EVP_CIPHER_fetch(ptr noundef %61, ptr noundef @.str.5, ptr noundef %62)
  %64 = load ptr, ptr %8, align 8, !tbaa !11
  %65 = getelementptr inbounds nuw %struct.prov_siv_ctx_st, ptr %64, i32 0, i32 5
  store ptr %63, ptr %65, align 8, !tbaa !27
  br label %67

66:                                               ; preds = %3
  br label %67

67:                                               ; preds = %66, %55, %44, %33
  %68 = load ptr, ptr %8, align 8, !tbaa !11
  %69 = getelementptr inbounds nuw %struct.prov_siv_ctx_st, ptr %68, i32 0, i32 6
  %70 = load ptr, ptr %69, align 8, !tbaa !26
  %71 = icmp eq ptr %70, null
  br i1 %71, label %77, label %72

72:                                               ; preds = %67
  %73 = load ptr, ptr %8, align 8, !tbaa !11
  %74 = getelementptr inbounds nuw %struct.prov_siv_ctx_st, ptr %73, i32 0, i32 5
  %75 = load ptr, ptr %74, align 8, !tbaa !27
  %76 = icmp eq ptr %75, null
  br i1 %76, label %77, label %78

77:                                               ; preds = %72, %67
  store i32 0, ptr %4, align 4
  store i32 1, ptr %13, align 4
  br label %92

78:                                               ; preds = %72
  %79 = load ptr, ptr %9, align 8, !tbaa !13
  %80 = load ptr, ptr %6, align 8, !tbaa !9
  %81 = load i64, ptr %10, align 8, !tbaa !3
  %82 = trunc i64 %81 to i32
  %83 = load ptr, ptr %8, align 8, !tbaa !11
  %84 = getelementptr inbounds nuw %struct.prov_siv_ctx_st, ptr %83, i32 0, i32 6
  %85 = load ptr, ptr %84, align 8, !tbaa !26
  %86 = load ptr, ptr %8, align 8, !tbaa !11
  %87 = getelementptr inbounds nuw %struct.prov_siv_ctx_st, ptr %86, i32 0, i32 5
  %88 = load ptr, ptr %87, align 8, !tbaa !27
  %89 = load ptr, ptr %11, align 8, !tbaa !25
  %90 = load ptr, ptr %12, align 8, !tbaa !9
  %91 = call i32 @ossl_siv128_init(ptr noundef %79, ptr noundef %80, i32 noundef %82, ptr noundef %85, ptr noundef %88, ptr noundef %89, ptr noundef %90)
  store i32 %91, ptr %4, align 4
  store i32 1, ptr %13, align 4
  br label %92

92:                                               ; preds = %78, %77
  call void @llvm.lifetime.end.p0(i64 8, ptr %12) #4
  call void @llvm.lifetime.end.p0(i64 8, ptr %11) #4
  call void @llvm.lifetime.end.p0(i64 8, ptr %10) #4
  call void @llvm.lifetime.end.p0(i64 8, ptr %9) #4
  call void @llvm.lifetime.end.p0(i64 8, ptr %8) #4
  %93 = load i32, ptr %4, align 4
  ret i32 %93
}