; Function Attrs: nounwind uwtable
define internal i32 @aes_siv_initkey(ptr noundef %0, ptr noundef %1, i64 noundef %2) #1 {
  %4 = getelementptr inbounds nuw i8, ptr %0, i64 24
  %5 = lshr i64 %2, 1
  %6 = getelementptr inbounds nuw i8, ptr %0, i64 112
  %7 = load ptr, ptr %6, align 8, !tbaa !3
  %8 = getelementptr inbounds nuw i8, ptr %0, i64 96
  %9 = load ptr, ptr %8, align 8, !tbaa !17
  tail call void @EVP_CIPHER_free(ptr noundef %9) #5
  %10 = getelementptr inbounds nuw i8, ptr %0, i64 88
  %11 = load ptr, ptr %10, align 8, !tbaa !18
  tail call void @EVP_CIPHER_free(ptr noundef %11) #5
  tail call void @llvm.memset.p0.i64(ptr noundef nonnull align 8 dereferenceable(16) %10, i8 0, i64 16, i1 false)
  switch i64 %5, label %.thread [
    i64 16, label %14
    i64 24, label %12
    i64 32, label %13
  ]

12:                                               ; preds = %3
  br label %14

13:                                               ; preds = %3
  br label %14

14:                                               ; preds = %3, %13, %12
  %.str.4.sink = phi ptr [ @.str.4, %13 ], [ @.str.2, %12 ], [ @.str, %3 ]
  %.str.5.sink = phi ptr [ @.str.5, %13 ], [ @.str.3, %12 ], [ @.str.1, %3 ]
  %15 = tail call ptr @EVP_CIPHER_fetch(ptr noundef %7, ptr noundef nonnull %.str.4.sink, ptr noundef null) #5
  store ptr %15, ptr %8, align 8, !tbaa !17
  %16 = tail call ptr @EVP_CIPHER_fetch(ptr noundef %7, ptr noundef nonnull %.str.5.sink, ptr noundef null) #5
  store ptr %16, ptr %10, align 8, !tbaa !18
  %.pr = load ptr, ptr %8, align 8, !tbaa !17
  %17 = icmp eq ptr %.pr, null
  %18 = icmp eq ptr %16, null
  %or.cond = select i1 %17, i1 true, i1 %18
  br i1 %or.cond, label %.thread, label %19

19:                                               ; preds = %14
  %20 = trunc i64 %5 to i32
  %21 = tail call i32 @ossl_siv128_init(ptr noundef nonnull %4, ptr noundef %1, i32 noundef %20, ptr noundef nonnull %.pr, ptr noundef nonnull %16, ptr noundef %7, ptr noundef null) #5
  br label %.thread

.thread:                                          ; preds = %3, %14, %19
  %.0 = phi i32 [ %21, %19 ], [ 0, %14 ], [ 0, %3 ]
  ret i32 %.0
}